; Function Attrs: mustprogress uwtable
define void @_ZN13duDisplayList6resizeEi(ptr nocapture noundef nonnull align 8 dereferenceable(41) %0, i32 noundef %1) local_unnamed_addr #4 align 2 {
  %3 = mul nsw i32 %1, 3
  %4 = sext i32 %3 to i64
  %5 = icmp slt i32 %1, 0
  %6 = shl nsw i64 %4, 2
  %7 = select i1 %5, i64 -1, i64 %6
  %8 = tail call noalias noundef nonnull ptr @_Znam(i64 noundef %7) #16
  %9 = getelementptr inbounds i8, ptr %0, i64 24
  %10 = load i32, ptr %9, align 8
  %.not = icmp eq i32 %10, 0
  %.phi.trans.insert = getelementptr inbounds i8, ptr %0, i64 8
  %.pre = load ptr, ptr %.phi.trans.insert, align 8
  br i1 %.not, label %._crit_edge, label %11

11:                                               ; preds = %2
  %12 = sext i32 %10 to i64
  %13 = mul nsw i64 %12, 12
  tail call void @llvm.memcpy.p0.p0.i64(ptr nonnull align 4 %8, ptr align 4 %.pre, i64 %13, i1 false)
  br label %._crit_edge

._crit_edge:                                      ; preds = %2, %11
  %14 = getelementptr inbounds i8, ptr %0, i64 8
  %15 = icmp eq ptr %.pre, null
  br i1 %15, label %17, label %16

16:                                               ; preds = %._crit_edge
  tail call void @_ZdaPv(ptr noundef nonnull %.pre) #17
  %.pre11 = load i32, ptr %9, align 8
  br label %17

17:                                               ; preds = %16, %._crit_edge
  %18 = phi i32 [ %.pre11, %16 ], [ %10, %._crit_edge ]
  store ptr %8, ptr %14, align 8
  %19 = zext nneg i32 %1 to i64
  %20 = shl nuw nsw i64 %19, 2
  %21 = select i1 %5, i64 -1, i64 %20
  %22 = tail call noalias noundef nonnull ptr @_Znam(i64 noundef %21) #16
  %.not10 = icmp eq i32 %18, 0
  %.phi.trans.insert13 = getelementptr inbounds i8, ptr %0, i64 16
  %.pre14 = load ptr, ptr %.phi.trans.insert13, align 8
  br i1 %.not10, label %._crit_edge12, label %23

23:                                               ; preds = %17
  %24 = sext i32 %18 to i64
  %25 = shl nsw i64 %24, 2
  tail call void @llvm.memcpy.p0.p0.i64(ptr nonnull align 4 %22, ptr align 4 %.pre14, i64 %25, i1 false)
  br label %._crit_edge12

._crit_edge12:                                    ; preds = %17, %23
  %26 = icmp eq ptr %.pre14, null
  br i1 %26, label %28, label %27

27:                                               ; preds = %._crit_edge12
  tail call void @_ZdaPv(ptr noundef nonnull %.pre14) #17
  br label %28

28:                                               ; preds = %27, %._crit_edge12
  %29 = getelementptr inbounds i8, ptr %0, i64 16
  store ptr %22, ptr %29, align 8
  %30 = getelementptr inbounds i8, ptr %0, i64 28
  store i32 %1, ptr %30, align 4
  ret void
}